; ModuleID = 'source-C-CXX/25/466.cpp'
source_filename = "source-C-CXX/25/466.cpp"
target datalayout = "e-m:e-p270:32:32-p271:32:32-p272:64:64-i64:64-f80:128-n8:16:32:64-S128"
target triple = "x86_64-pc-linux-gnu"

%"class.std::ios_base::Init" = type { i8 }
%"class.std::basic_istream" = type { i32 (...)**, i64, %"class.std::basic_ios" }
%"class.std::basic_ios" = type { %"class.std::ios_base", %"class.std::basic_ostream"*, i8, i8, %"class.std::basic_streambuf"*, %"class.std::ctype"*, %"class.std::num_put"*, %"class.std::num_get"* }
%"class.std::ios_base" = type { i32 (...)**, i64, i64, i32, i32, i32, %"struct.std::ios_base::_Callback_list"*, %"struct.std::ios_base::_Words", [8 x %"struct.std::ios_base::_Words"], i32, %"struct.std::ios_base::_Words"*, %"class.std::locale" }
%"struct.std::ios_base::_Callback_list" = type { %"struct.std::ios_base::_Callback_list"*, void (i32, %"class.std::ios_base"*, i32)*, i32, i32 }
%"struct.std::ios_base::_Words" = type { i8*, i64 }
%"class.std::locale" = type { %"class.std::locale::_Impl"* }
%"class.std::locale::_Impl" = type { i32, %"class.std::locale::facet"**, i64, %"class.std::locale::facet"**, i8** }
%"class.std::locale::facet" = type <{ i32 (...)**, i32, [4 x i8] }>
%"class.std::basic_ostream" = type { i32 (...)**, %"class.std::basic_ios" }
%"class.std::basic_streambuf" = type { i32 (...)**, i8*, i8*, i8*, i8*, i8*, i8*, %"class.std::locale" }
%"class.std::ctype" = type <{ %"class.std::locale::facet.base", [4 x i8], %struct.__locale_struct*, i8, [7 x i8], i32*, i32*, i16*, i8, [256 x i8], [256 x i8], i8, [6 x i8] }>
%"class.std::locale::facet.base" = type <{ i32 (...)**, i32 }>
%struct.__locale_struct = type { [13 x %struct.__locale_data*], i16*, i32*, i32*, [13 x i8*] }
%struct.__locale_data = type opaque
%"class.std::num_put" = type { %"class.std::locale::facet.base", [4 x i8] }
%"class.std::num_get" = type { %"class.std::locale::facet.base", [4 x i8] }

@_ZStL8__ioinit = internal global %"class.std::ios_base::Init" zeroinitializer, align 1
@__dso_handle = external hidden global i8
@_ZSt3cin = external global %"class.std::basic_istream", align 8
@_ZSt4cout = external global %"class.std::basic_ostream", align 8
@llvm.global_ctors = appending global [1 x { i32, void ()*, i8* }] [{ i32, void ()*, i8* } { i32 65535, void ()* @_GLOBAL__sub_I_466.cpp, i8* null }]

declare void @_ZNSt8ios_base4InitC1Ev(%"class.std::ios_base::Init"* nonnull align 1 dereferenceable(1)) unnamed_addr #0

; Function Attrs: nounwind
declare void @_ZNSt8ios_base4InitD1Ev(%"class.std::ios_base::Init"* nonnull align 1 dereferenceable(1)) unnamed_addr #1

; Function Attrs: nofree nounwind
declare i32 @__cxa_atexit(void (i8*)*, i8*, i8*) local_unnamed_addr #2

; Function Attrs: mustprogress norecurse sspstrong uwtable
define dso_local i32 @main() local_unnamed_addr #3 {
  %1 = alloca [150 x i8], align 16
  %2 = getelementptr inbounds [150 x i8], [150 x i8]* %1, i64 0, i64 0
  call void @llvm.lifetime.start.p0i8(i64 150, i8* nonnull %2) #9
  %3 = load i8*, i8** bitcast (%"class.std::basic_istream"* @_ZSt3cin to i8**), align 8, !tbaa !5
  %4 = getelementptr i8, i8* %3, i64 -24
  %5 = bitcast i8* %4 to i64*
  %6 = load i64, i64* %5, align 8
  %7 = add nsw i64 %6, 240
  %8 = getelementptr inbounds i8, i8* bitcast (%"class.std::basic_istream"* @_ZSt3cin to i8*), i64 %7
  %9 = bitcast i8* %8 to %"class.std::ctype"**
  %10 = load %"class.std::ctype"*, %"class.std::ctype"** %9, align 8, !tbaa !8
  %11 = icmp eq %"class.std::ctype"* %10, null
  br i1 %11, label %12, label %13

12:                                               ; preds = %0
  tail call void @_ZSt16__throw_bad_castv() #10
  unreachable

13:                                               ; preds = %0
  %14 = getelementptr inbounds %"class.std::ctype", %"class.std::ctype"* %10, i64 0, i32 8
  %15 = load i8, i8* %14, align 8, !tbaa !13
  %16 = icmp eq i8 %15, 0
  br i1 %16, label %20, label %17

17:                                               ; preds = %13
  %18 = getelementptr inbounds %"class.std::ctype", %"class.std::ctype"* %10, i64 0, i32 9, i64 10
  %19 = load i8, i8* %18, align 1, !tbaa !15
  br label %26

20:                                               ; preds = %13
  tail call void @_ZNKSt5ctypeIcE13_M_widen_initEv(%"class.std::ctype"* nonnull align 8 dereferenceable(570) %10)
  %21 = bitcast %"class.std::ctype"* %10 to i8 (%"class.std::ctype"*, i8)***
  %22 = load i8 (%"class.std::ctype"*, i8)**, i8 (%"class.std::ctype"*, i8)*** %21, align 8, !tbaa !5
  %23 = getelementptr inbounds i8 (%"class.std::ctype"*, i8)*, i8 (%"class.std::ctype"*, i8)** %22, i64 6
  %24 = load i8 (%"class.std::ctype"*, i8)*, i8 (%"class.std::ctype"*, i8)** %23, align 8
  %25 = tail call signext i8 %24(%"class.std::ctype"* nonnull align 8 dereferenceable(570) %10, i8 signext 10)
  br label %26

26:                                               ; preds = %17, %20
  %27 = phi i8 [ %19, %17 ], [ %25, %20 ]
  %28 = call nonnull align 8 dereferenceable(16) %"class.std::basic_istream"* @_ZNSi7getlineEPclc(%"class.std::basic_istream"* nonnull align 8 dereferenceable(16) @_ZSt3cin, i8* nonnull %2, i64 150, i8 signext %27)
  %29 = call i64 @strlen(i8* noundef nonnull %2) #11
  %30 = trunc i64 %29 to i32
  %31 = icmp sgt i32 %30, 1
  br i1 %31, label %32, label %158

32:                                               ; preds = %26
  %33 = shl i64 %29, 32
  %34 = ashr exact i64 %33, 32
  %35 = add i64 %29, 4294967295
  %36 = and i64 %35, 4294967295
  %37 = and i64 %29, 4294967295
  br label %38

38:                                               ; preds = %32, %155
  %39 = phi i64 [ 0, %32 ], [ %50, %155 ]
  %40 = phi i64 [ 1, %32 ], [ %156, %155 ]
  %41 = xor i64 %39, -1
  %42 = add nsw i64 %37, %41
  %43 = add i64 %42, -32
  %44 = lshr i64 %43, 5
  %45 = add nuw nsw i64 %44, 1
  %46 = xor i64 %39, -1
  %47 = add nsw i64 %37, %46
  %48 = xor i64 %39, -1
  %49 = add nsw i64 %37, %48
  %50 = add nuw nsw i64 %39, 1
  %51 = getelementptr inbounds [150 x i8], [150 x i8]* %1, i64 0, i64 %50
  %52 = getelementptr inbounds [150 x i8], [150 x i8]* %1, i64 0, i64 %39
  %53 = load i8, i8* %52, align 1, !tbaa !15
  %54 = icmp eq i8 %53, 32
  br i1 %54, label %55, label %155

55:                                               ; preds = %38
  %56 = icmp slt i64 %50, %34
  br i1 %56, label %57, label %152

57:                                               ; preds = %55
  %58 = icmp ult i64 %49, 8
  %59 = icmp ult i64 %49, 32
  %60 = and i64 %49, -32
  %61 = and i64 %45, 1
  %62 = icmp ult i64 %43, 32
  %63 = and i64 %45, 1152921504606846974
  %64 = icmp eq i64 %61, 0
  %65 = icmp eq i64 %49, %60
  %66 = add i64 %40, %60
  %67 = and i64 %49, 24
  %68 = icmp eq i64 %67, 0
  %69 = and i64 %47, -8
  %70 = add i64 %40, %69
  %71 = icmp eq i64 %47, %69
  br label %72

72:                                               ; preds = %57, %149
  %73 = load i8, i8* %51, align 1, !tbaa !15
  %74 = icmp eq i8 %73, 32
  br i1 %74, label %75, label %155

75:                                               ; preds = %72
  br i1 %58, label %140, label %76

76:                                               ; preds = %75
  br i1 %59, label %126, label %77

77:                                               ; preds = %76
  br i1 %62, label %109, label %78

78:                                               ; preds = %77, %78
  %79 = phi i64 [ %106, %78 ], [ 0, %77 ]
  %80 = phi i64 [ %107, %78 ], [ %63, %77 ]
  %81 = add i64 %40, %79
  %82 = add nuw nsw i64 %81, 1
  %83 = getelementptr inbounds [150 x i8], [150 x i8]* %1, i64 0, i64 %82
  %84 = bitcast i8* %83 to <16 x i8>*
  %85 = load <16 x i8>, <16 x i8>* %84, align 1, !tbaa !15
  %86 = getelementptr inbounds i8, i8* %83, i64 16
  %87 = bitcast i8* %86 to <16 x i8>*
  %88 = load <16 x i8>, <16 x i8>* %87, align 1, !tbaa !15
  %89 = getelementptr inbounds [150 x i8], [150 x i8]* %1, i64 0, i64 %81
  %90 = bitcast i8* %89 to <16 x i8>*
  store <16 x i8> %85, <16 x i8>* %90, align 1, !tbaa !15
  %91 = getelementptr inbounds i8, i8* %89, i64 16
  %92 = bitcast i8* %91 to <16 x i8>*
  store <16 x i8> %88, <16 x i8>* %92, align 1, !tbaa !15
  %93 = or i64 %79, 32
  %94 = add i64 %40, %93
  %95 = add nuw nsw i64 %94, 1
  %96 = getelementptr inbounds [150 x i8], [150 x i8]* %1, i64 0, i64 %95
  %97 = bitcast i8* %96 to <16 x i8>*
  %98 = load <16 x i8>, <16 x i8>* %97, align 1, !tbaa !15
  %99 = getelementptr inbounds i8, i8* %96, i64 16
  %100 = bitcast i8* %99 to <16 x i8>*
  %101 = load <16 x i8>, <16 x i8>* %100, align 1, !tbaa !15
  %102 = getelementptr inbounds [150 x i8], [150 x i8]* %1, i64 0, i64 %94
  %103 = bitcast i8* %102 to <16 x i8>*
  store <16 x i8> %98, <16 x i8>* %103, align 1, !tbaa !15
  %104 = getelementptr inbounds i8, i8* %102, i64 16
  %105 = bitcast i8* %104 to <16 x i8>*
  store <16 x i8> %101, <16 x i8>* %105, align 1, !tbaa !15
  %106 = add nuw i64 %79, 64
  %107 = add i64 %80, -2
  %108 = icmp eq i64 %107, 0
  br i1 %108, label %109, label %78, !llvm.loop !16

109:                                              ; preds = %78, %77
  %110 = phi i64 [ 0, %77 ], [ %106, %78 ]
  br i1 %64, label %124, label %111

111:                                              ; preds = %109
  %112 = add i64 %40, %110
  %113 = add nuw nsw i64 %112, 1
  %114 = getelementptr inbounds [150 x i8], [150 x i8]* %1, i64 0, i64 %113
  %115 = bitcast i8* %114 to <16 x i8>*
  %116 = load <16 x i8>, <16 x i8>* %115, align 1, !tbaa !15
  %117 = getelementptr inbounds i8, i8* %114, i64 16
  %118 = bitcast i8* %117 to <16 x i8>*
  %119 = load <16 x i8>, <16 x i8>* %118, align 1, !tbaa !15
  %120 = getelementptr inbounds [150 x i8], [150 x i8]* %1, i64 0, i64 %112
  %121 = bitcast i8* %120 to <16 x i8>*
  store <16 x i8> %116, <16 x i8>* %121, align 1, !tbaa !15
  %122 = getelementptr inbounds i8, i8* %120, i64 16
  %123 = bitcast i8* %122 to <16 x i8>*
  store <16 x i8> %119, <16 x i8>* %123, align 1, !tbaa !15
  br label %124

124:                                              ; preds = %109, %111
  br i1 %65, label %149, label %125

125:                                              ; preds = %124
  br i1 %68, label %140, label %126

126:                                              ; preds = %76, %125
  %127 = phi i64 [ %60, %125 ], [ 0, %76 ]
  br label %128

128:                                              ; preds = %128, %126
  %129 = phi i64 [ %127, %126 ], [ %137, %128 ]
  %130 = add i64 %40, %129
  %131 = add nuw nsw i64 %130, 1
  %132 = getelementptr inbounds [150 x i8], [150 x i8]* %1, i64 0, i64 %131
  %133 = bitcast i8* %132 to <8 x i8>*
  %134 = load <8 x i8>, <8 x i8>* %133, align 1, !tbaa !15
  %135 = getelementptr inbounds [150 x i8], [150 x i8]* %1, i64 0, i64 %130
  %136 = bitcast i8* %135 to <8 x i8>*
  store <8 x i8> %134, <8 x i8>* %136, align 1, !tbaa !15
  %137 = add nuw i64 %129, 8
  %138 = icmp eq i64 %137, %69
  br i1 %138, label %139, label %128, !llvm.loop !19

139:                                              ; preds = %128
  br i1 %71, label %149, label %140

140:                                              ; preds = %75, %125, %139
  %141 = phi i64 [ %40, %75 ], [ %66, %125 ], [ %70, %139 ]
  br label %142

142:                                              ; preds = %140, %142
  %143 = phi i64 [ %144, %142 ], [ %141, %140 ]
  %144 = add nuw nsw i64 %143, 1
  %145 = getelementptr inbounds [150 x i8], [150 x i8]* %1, i64 0, i64 %144
  %146 = load i8, i8* %145, align 1, !tbaa !15
  %147 = getelementptr inbounds [150 x i8], [150 x i8]* %1, i64 0, i64 %143
  store i8 %146, i8* %147, align 1, !tbaa !15
  %148 = icmp eq i64 %144, %37
  br i1 %148, label %149, label %142, !llvm.loop !20

149:                                              ; preds = %142, %139, %124
  %150 = load i8, i8* %52, align 1, !tbaa !15
  %151 = icmp eq i8 %150, 32
  br i1 %151, label %72, label %155, !llvm.loop !22

152:                                              ; preds = %55
  %153 = load i8, i8* %51, align 1, !tbaa !15
  %154 = icmp ne i8 %153, 32
  call void @llvm.assume(i1 %154)
  br label %155

155:                                              ; preds = %149, %72, %152, %38
  %156 = add nuw nsw i64 %40, 1
  %157 = icmp eq i64 %50, %36
  br i1 %157, label %158, label %38, !llvm.loop !23

158:                                              ; preds = %155, %26
  %159 = call i64 @strlen(i8* noundef nonnull dereferenceable(1) %2) #9
  %160 = call nonnull align 8 dereferenceable(8) %"class.std::basic_ostream"* @_ZSt16__ostream_insertIcSt11char_traitsIcEERSt13basic_ostreamIT_T0_ES6_PKS3_l(%"class.std::basic_ostream"* nonnull align 8 dereferenceable(8) @_ZSt4cout, i8* nonnull %2, i64 %159)
  %161 = load i8*, i8** bitcast (%"class.std::basic_ostream"* @_ZSt4cout to i8**), align 8, !tbaa !5
  %162 = getelementptr i8, i8* %161, i64 -24
  %163 = bitcast i8* %162 to i64*
  %164 = load i64, i64* %163, align 8
  %165 = add nsw i64 %164, 240
  %166 = getelementptr inbounds i8, i8* bitcast (%"class.std::basic_ostream"* @_ZSt4cout to i8*), i64 %165
  %167 = bitcast i8* %166 to %"class.std::ctype"**
  %168 = load %"class.std::ctype"*, %"class.std::ctype"** %167, align 8, !tbaa !8
  %169 = icmp eq %"class.std::ctype"* %168, null
  br i1 %169, label %170, label %171

170:                                              ; preds = %158
  call void @_ZSt16__throw_bad_castv() #10
  unreachable

171:                                              ; preds = %158
  %172 = getelementptr inbounds %"class.std::ctype", %"class.std::ctype"* %168, i64 0, i32 8
  %173 = load i8, i8* %172, align 8, !tbaa !13
  %174 = icmp eq i8 %173, 0
  br i1 %174, label %178, label %175

175:                                              ; preds = %171
  %176 = getelementptr inbounds %"class.std::ctype", %"class.std::ctype"* %168, i64 0, i32 9, i64 10
  %177 = load i8, i8* %176, align 1, !tbaa !15
  br label %184

178:                                              ; preds = %171
  call void @_ZNKSt5ctypeIcE13_M_widen_initEv(%"class.std::ctype"* nonnull align 8 dereferenceable(570) %168)
  %179 = bitcast %"class.std::ctype"* %168 to i8 (%"class.std::ctype"*, i8)***
  %180 = load i8 (%"class.std::ctype"*, i8)**, i8 (%"class.std::ctype"*, i8)*** %179, align 8, !tbaa !5
  %181 = getelementptr inbounds i8 (%"class.std::ctype"*, i8)*, i8 (%"class.std::ctype"*, i8)** %180, i64 6
  %182 = load i8 (%"class.std::ctype"*, i8)*, i8 (%"class.std::ctype"*, i8)** %181, align 8
  %183 = call signext i8 %182(%"class.std::ctype"* nonnull align 8 dereferenceable(570) %168, i8 signext 10)
  br label %184

184:                                              ; preds = %175, %178
  %185 = phi i8 [ %177, %175 ], [ %183, %178 ]
  %186 = call nonnull align 8 dereferenceable(8) %"class.std::basic_ostream"* @_ZNSo3putEc(%"class.std::basic_ostream"* nonnull align 8 dereferenceable(8) @_ZSt4cout, i8 signext %185)
  %187 = call nonnull align 8 dereferenceable(8) %"class.std::basic_ostream"* @_ZNSo5flushEv(%"class.std::basic_ostream"* nonnull align 8 dereferenceable(8) %186)
  call void @llvm.lifetime.end.p0i8(i64 150, i8* nonnull %2) #9
  ret i32 0
}

; Function Attrs: argmemonly mustprogress nofree nosync nounwind willreturn
declare void @llvm.lifetime.start.p0i8(i64 immarg, i8* nocapture) #4

; Function Attrs: argmemonly mustprogress nofree nounwind readonly willreturn
declare i64 @strlen(i8* nocapture) local_unnamed_addr #5

; Function Attrs: argmemonly mustprogress nofree nosync nounwind willreturn
declare void @llvm.lifetime.end.p0i8(i64 immarg, i8* nocapture) #4

declare nonnull align 8 dereferenceable(16) %"class.std::basic_istream"* @_ZNSi7getlineEPclc(%"class.std::basic_istream"* nonnull align 8 dereferenceable(16), i8*, i64, i8 signext) local_unnamed_addr #0

; Function Attrs: noreturn
declare void @_ZSt16__throw_bad_castv() local_unnamed_addr #6

declare void @_ZNKSt5ctypeIcE13_M_widen_initEv(%"class.std::ctype"* nonnull align 8 dereferenceable(570)) local_unnamed_addr #0

declare nonnull align 8 dereferenceable(8) %"class.std::basic_ostream"* @_ZSt16__ostream_insertIcSt11char_traitsIcEERSt13basic_ostreamIT_T0_ES6_PKS3_l(%"class.std::basic_ostream"* nonnull align 8 dereferenceable(8), i8*, i64) local_unnamed_addr #0

declare nonnull align 8 dereferenceable(8) %"class.std::basic_ostream"* @_ZNSo3putEc(%"class.std::basic_ostream"* nonnull align 8 dereferenceable(8), i8 signext) local_unnamed_addr #0

declare nonnull align 8 dereferenceable(8) %"class.std::basic_ostream"* @_ZNSo5flushEv(%"class.std::basic_ostream"* nonnull align 8 dereferenceable(8)) local_unnamed_addr #0

; Function Attrs: sspstrong uwtable
define internal void @_GLOBAL__sub_I_466.cpp() #7 section ".text.startup" {
  tail call void @_ZNSt8ios_base4InitC1Ev(%"class.std::ios_base::Init"* nonnull align 1 dereferenceable(1) @_ZStL8__ioinit)
  %1 = tail call i32 @__cxa_atexit(void (i8*)* bitcast (void (%"class.std::ios_base::Init"*)* @_ZNSt8ios_base4InitD1Ev to void (i8*)*), i8* getelementptr inbounds (%"class.std::ios_base::Init", %"class.std::ios_base::Init"* @_ZStL8__ioinit, i64 0, i32 0), i8* nonnull @__dso_handle) #9
  ret void
}

; Function Attrs: inaccessiblememonly nofree nosync nounwind willreturn
declare void @llvm.assume(i1 noundef) #8


!llvm.module.flags = !{!0, !1, !2, !3}
!llvm.ident = !{!4}

!0 = !{i32 1, !"wchar_size", i32 4}
!1 = !{i32 7, !"PIC Level", i32 2}
!2 = !{i32 7, !"PIE Level", i32 2}
!3 = !{i32 7, !"uwtable", i32 1}
!4 = !{!"clang version 13.0.0"}
!5 = !{!6, !6, i64 0}
!6 = !{!"vtable pointer", !7, i64 0}
!7 = !{!"Simple C++ TBAA"}
!8 = !{!9, !10, i64 240}
!9 = !{!"_ZTSSt9basic_iosIcSt11char_traitsIcEE", !10, i64 216, !11, i64 224, !12, i64 225, !10, i64 232, !10, i64 240, !10, i64 248, !10, i64 256}
!10 = !{!"any pointer", !11, i64 0}
!11 = !{!"omnipotent char", !7, i64 0}
!12 = !{!"bool", !11, i64 0}
!13 = !{!14, !11, i64 56}
!14 = !{!"_ZTSSt5ctypeIcE", !10, i64 16, !12, i64 24, !10, i64 32, !10, i64 40, !10, i64 48, !11, i64 56, !11, i64 57, !11, i64 313, !11, i64 569}
!15 = !{!11, !11, i64 0}
!16 = distinct !{!16, !17, !18}
!17 = !{!"llvm.loop.mustprogress"}
!18 = !{!"llvm.loop.isvectorized", i32 1}
!19 = distinct !{!19, !17, !18}
!20 = distinct !{!20, !17, !21, !18}
!21 = !{!"llvm.loop.unroll.runtime.disable"}
!22 = distinct !{!22, !17}
!23 = distinct !{!23, !17}
